target datalayout = "e-m:e-p270:32:32-p271:32:32-p272:64:64-i64:64-i128:128-f80:128-n8:16:32:64-S128"
target triple = "x86_64-pc-linux-gnu"

%struct.ZSTDv05_DCtx_s = type { [1025 x i32], [513 x i32], [1025 x i32], [4097 x i32], ptr, ptr, ptr, ptr, i64, i64, %struct.ZSTDv05_parameters, i32, i32, i32, ptr, i64, [131080 x i8], [5 x i8] }
%struct.ZSTDv05_parameters = type { i64, i32, i32, i32, i32, i32, i32, i32 }

; Function Attrs: nounwind uwtable
define internal void @ZSTDv05_checkContinuity(ptr noundef %0, ptr noundef %1) #0 {
  %3 = alloca ptr, align 8
  %4 = alloca ptr, align 8
  store ptr %0, ptr %3, align 8, !tbaa !75
  store ptr %1, ptr %4, align 8, !tbaa !12
  %5 = load ptr, ptr %4, align 8, !tbaa !12
  %6 = load ptr, ptr %3, align 8, !tbaa !75
  %7 = getelementptr inbounds nuw %struct.ZSTDv05_DCtx_s, ptr %6, i32 0, i32 4
  %8 = load ptr, ptr %7, align 8, !tbaa !81
  %9 = icmp ne ptr %5, %8
  br i1 %9, label %10, label %36

10:                                               ; preds = %2
  %11 = load ptr, ptr %3, align 8, !tbaa !75
  %12 = getelementptr inbounds nuw %struct.ZSTDv05_DCtx_s, ptr %11, i32 0, i32 4
  %13 = load ptr, ptr %12, align 8, !tbaa !81
  %14 = load ptr, ptr %3, align 8, !tbaa !75
  %15 = getelementptr inbounds nuw %struct.ZSTDv05_DCtx_s, ptr %14, i32 0, i32 7
  store ptr %13, ptr %15, align 8, !tbaa !84
  %16 = load ptr, ptr %4, align 8, !tbaa !12
  %17 = load ptr, ptr %3, align 8, !tbaa !75
  %18 = getelementptr inbounds nuw %struct.ZSTDv05_DCtx_s, ptr %17, i32 0, i32 4
  %19 = load ptr, ptr %18, align 8, !tbaa !81
  %20 = load ptr, ptr %3, align 8, !tbaa !75
  %21 = getelementptr inbounds nuw %struct.ZSTDv05_DCtx_s, ptr %20, i32 0, i32 5
  %22 = load ptr, ptr %21, align 8, !tbaa !82
  %23 = ptrtoint ptr %19 to i64
  %24 = ptrtoint ptr %22 to i64
  %25 = sub i64 %23, %24
  %26 = sub i64 0, %25
  %27 = getelementptr inbounds i8, ptr %16, i64 %26
  %28 = load ptr, ptr %3, align 8, !tbaa !75
  %29 = getelementptr inbounds nuw %struct.ZSTDv05_DCtx_s, ptr %28, i32 0, i32 6
  store ptr %27, ptr %29, align 8, !tbaa !83
  %30 = load ptr, ptr %4, align 8, !tbaa !12
  %31 = load ptr, ptr %3, align 8, !tbaa !75
  %32 = getelementptr inbounds nuw %struct.ZSTDv05_DCtx_s, ptr %31, i32 0, i32 5
  store ptr %30, ptr %32, align 8, !tbaa !82
  %33 = load ptr, ptr %4, align 8, !tbaa !12
  %34 = load ptr, ptr %3, align 8, !tbaa !75
  %35 = getelementptr inbounds nuw %struct.ZSTDv05_DCtx_s, ptr %34, i32 0, i32 4
  store ptr %33, ptr %35, align 8, !tbaa !81
  br label %36

36:                                               ; preds = %10, %2
  ret void
}

; Function Attrs: nounwind uwtable
define i64 @ZSTDv05_decompress_usingDict(ptr noundef %0, ptr noundef %1, i64 noundef %2, ptr noundef %3, i64 noundef %4, ptr noundef %5, i64 noundef %6) #0 {
  %8 = alloca ptr, align 8
  %9 = alloca ptr, align 8
  %10 = alloca i64, align 8
  %11 = alloca ptr, align 8
  %12 = alloca i64, align 8
  %13 = alloca ptr, align 8
  %14 = alloca i64, align 8
  store ptr %0, ptr %8, align 8, !tbaa !75
  store ptr %1, ptr %9, align 8, !tbaa !12
  store i64 %2, ptr %10, align 8, !tbaa !29
  store ptr %3, ptr %11, align 8, !tbaa !12
  store i64 %4, ptr %12, align 8, !tbaa !29
  store ptr %5, ptr %13, align 8, !tbaa !12
  store i64 %6, ptr %14, align 8, !tbaa !29
  %15 = load ptr, ptr %8, align 8, !tbaa !75
  %16 = load ptr, ptr %13, align 8, !tbaa !12
  %17 = load i64, ptr %14, align 8, !tbaa !29
  %18 = call i64 @ZSTDv05_decompressBegin_usingDict(ptr noundef %15, ptr noundef %16, i64 noundef %17)
  %19 = load ptr, ptr %8, align 8, !tbaa !75
  %20 = load ptr, ptr %9, align 8, !tbaa !12
  call void @ZSTDv05_checkContinuity(ptr noundef %19, ptr noundef %20)
  %21 = load ptr, ptr %8, align 8, !tbaa !75
  %22 = load ptr, ptr %9, align 8, !tbaa !12
  %23 = load i64, ptr %10, align 8, !tbaa !29
  %24 = load ptr, ptr %11, align 8, !tbaa !12
  %25 = load i64, ptr %12, align 8, !tbaa !29
  %26 = call i64 @ZSTDv05_decompress_continueDCtx(ptr noundef %21, ptr noundef %22, i64 noundef %23, ptr noundef %24, i64 noundef %25)
  ret i64 %26
}