; Function Attrs: nounwind uwtable
define i64 @ZSTDv05_decompress_usingDict(ptr noundef initializes((10252, 10256), (26640, 26680), (26732, 26740)) %0, ptr noundef %1, i64 noundef %2, ptr noundef %3, i64 noundef %4, ptr noundef %5, i64 noundef %6) local_unnamed_addr #9 {
  %8 = tail call i64 @ZSTDv05_decompressBegin_usingDict(ptr noundef %0, ptr noundef %5, i64 noundef %6)
  %9 = getelementptr inbounds nuw i8, ptr %0, i64 26640
  %10 = load ptr, ptr %9, align 8, !tbaa !76
  %.not.i = icmp eq ptr %1, %10
  br i1 %.not.i, label %ZSTDv05_checkContinuity.exit, label %11

11:                                               ; preds = %7
  %12 = getelementptr inbounds nuw i8, ptr %0, i64 26664
  store ptr %10, ptr %12, align 8, !tbaa !77
  %13 = getelementptr inbounds nuw i8, ptr %0, i64 26648
  %14 = load ptr, ptr %13, align 8, !tbaa !78
  %15 = ptrtoint ptr %10 to i64
  %16 = ptrtoint ptr %14 to i64
  %.neg.i = sub i64 %16, %15
  %17 = getelementptr inbounds i8, ptr %1, i64 %.neg.i
  %18 = getelementptr inbounds nuw i8, ptr %0, i64 26656
  store ptr %17, ptr %18, align 8, !tbaa !79
  store ptr %1, ptr %13, align 8, !tbaa !78
  store ptr %1, ptr %9, align 8, !tbaa !76
  br label %ZSTDv05_checkContinuity.exit

ZSTDv05_checkContinuity.exit:                     ; preds = %7, %11
  %19 = tail call fastcc i64 @ZSTDv05_decompress_continueDCtx(ptr noundef nonnull %0, ptr noundef %1, i64 noundef %2, ptr noundef %3, i64 noundef %4)
  ret i64 %19
}